; Function Attrs: mustprogress uwtable
define void @_ZN2cv3dnn14dnn4_v2024122319ClassificationModel8classifyERKNS_11_InputArrayERiRf(ptr noundef nonnull readonly align 8 captures(none) dereferenceable(16) %0, ptr noundef nonnull align 8 dereferenceable(24) %1, ptr noundef nonnull writeonly align 4 captures(none) dereferenceable(4) initializes((0, 4)) %2, ptr noundef nonnull writeonly align 4 captures(none) dereferenceable(4) initializes((0, 4)) %3) local_unnamed_addr #4 align 2 personality ptr @__gxx_personality_v0 {
  %5 = tail call i64 @_ZN2cv3dnn14dnn4_v2024122319ClassificationModel8classifyERKNS_11_InputArrayE(ptr noundef nonnull align 8 dereferenceable(16) %0, ptr noundef nonnull align 8 dereferenceable(24) %1)
  %.sroa.04.0.extract.trunc = trunc i64 %5 to i32
  %.sroa.45.0.extract.shift = lshr i64 %5, 32
  %.sroa.45.0.extract.trunc = trunc nuw i64 %.sroa.45.0.extract.shift to i32
  store i32 %.sroa.04.0.extract.trunc, ptr %2, align 4, !tbaa !98
  store i32 %.sroa.45.0.extract.trunc, ptr %3, align 4, !tbaa !102
  ret void
}